target datalayout = "e-m:e-p270:32:32-p271:32:32-p272:64:64-i64:64-i128:128-f80:128-n8:16:32:64-S128"
target triple = "x86_64-pc-linux-gnu"

@libctx = internal global ptr null, align 8
@.str.14 = private unnamed_addr constant [29 x i8] c"../openssl/test/sslapitest.c\00", align 1
@cert = internal global ptr null, align 8
@privkey = internal global ptr null, align 8
@.str.199 = private unnamed_addr constant [2 x i8] c"r\00", align 1
@.str.939 = private unnamed_addr constant [31 x i8] c"SSL_get0_peer_certificate(ssl)\00", align 1
@.str.940 = private unnamed_addr constant [3 x i8] c"in\00", align 1
@.str.941 = private unnamed_addr constant [34 x i8] c"xcert = X509_new_ex(libctx, NULL)\00", align 1
@.str.942 = private unnamed_addr constant [42 x i8] c"PEM_read_bio_X509(in, &xcert, NULL, NULL)\00", align 1
@.str.943 = private unnamed_addr constant [37 x i8] c"priv_in = BIO_new_file(privkey, \22r\22)\00", align 1
@.str.944 = private unnamed_addr constant [79 x i8] c"privpkey = PEM_read_bio_PrivateKey_ex(priv_in, NULL, NULL, NULL, libctx, NULL)\00", align 1

; Function Attrs: nounwind uwtable
define internal i32 @client_cert_cb(ptr noundef %0, ptr noundef %1, ptr noundef %2) #0 {
  %4 = alloca i32, align 4
  %5 = alloca ptr, align 8
  %6 = alloca ptr, align 8
  %7 = alloca ptr, align 8
  %8 = alloca ptr, align 8
  %9 = alloca ptr, align 8
  %10 = alloca ptr, align 8
  %11 = alloca ptr, align 8
  %12 = alloca i32, align 4
  store ptr %0, ptr %5, align 8, !tbaa !21
  store ptr %1, ptr %6, align 8, !tbaa !248
  store ptr %2, ptr %7, align 8, !tbaa !250
  call void @llvm.lifetime.start.p0(i64 8, ptr %8) #9
  call void @llvm.lifetime.start.p0(i64 8, ptr %9) #9
  call void @llvm.lifetime.start.p0(i64 8, ptr %10) #9
  store ptr null, ptr %10, align 8, !tbaa !29
  call void @llvm.lifetime.start.p0(i64 8, ptr %11) #9
  store ptr null, ptr %11, align 8, !tbaa !29
  %13 = load ptr, ptr %5, align 8, !tbaa !21
  %14 = call ptr @SSL_get0_peer_certificate(ptr noundef %13)
  %15 = call i32 @test_ptr(ptr noundef @.str.14, i32 noundef 9101, ptr noundef @.str.939, ptr noundef %14)
  %16 = icmp ne i32 %15, 0
  br i1 %16, label %18, label %17

17:                                               ; preds = %3
  store i32 0, ptr %4, align 4
  store i32 1, ptr %12, align 4
  br label %62

18:                                               ; preds = %3
  %19 = load ptr, ptr @cert, align 8, !tbaa !11
  %20 = call ptr @BIO_new_file(ptr noundef %19, ptr noundef @.str.199)
  store ptr %20, ptr %10, align 8, !tbaa !29
  %21 = load ptr, ptr %10, align 8, !tbaa !29
  %22 = call i32 @test_ptr(ptr noundef @.str.14, i32 noundef 9105, ptr noundef @.str.940, ptr noundef %21)
  %23 = icmp ne i32 %22, 0
  br i1 %23, label %25, label %24

24:                                               ; preds = %18
  store i32 0, ptr %4, align 4
  store i32 1, ptr %12, align 4
  br label %62

25:                                               ; preds = %18
  %26 = load ptr, ptr @libctx, align 8, !tbaa !4
  %27 = call ptr @X509_new_ex(ptr noundef %26, ptr noundef null)
  store ptr %27, ptr %8, align 8, !tbaa !31
  %28 = call i32 @test_ptr(ptr noundef @.str.14, i32 noundef 9108, ptr noundef @.str.941, ptr noundef %27)
  %29 = icmp ne i32 %28, 0
  br i1 %29, label %30, label %46

30:                                               ; preds = %25
  %31 = load ptr, ptr %10, align 8, !tbaa !29
  %32 = call ptr @PEM_read_bio_X509(ptr noundef %31, ptr noundef %8, ptr noundef null, ptr noundef null)
  %33 = call i32 @test_ptr(ptr noundef @.str.14, i32 noundef 9109, ptr noundef @.str.942, ptr noundef %32)
  %34 = icmp ne i32 %33, 0
  br i1 %34, label %35, label %46

35:                                               ; preds = %30
  %36 = load ptr, ptr @privkey, align 8, !tbaa !11
  %37 = call ptr @BIO_new_file(ptr noundef %36, ptr noundef @.str.199)
  store ptr %37, ptr %11, align 8, !tbaa !29
  %38 = call i32 @test_ptr(ptr noundef @.str.14, i32 noundef 9110, ptr noundef @.str.943, ptr noundef %37)
  %39 = icmp ne i32 %38, 0
  br i1 %39, label %40, label %46

40:                                               ; preds = %35
  %41 = load ptr, ptr %11, align 8, !tbaa !29
  %42 = load ptr, ptr @libctx, align 8, !tbaa !4
  %43 = call ptr @PEM_read_bio_PrivateKey_ex(ptr noundef %41, ptr noundef null, ptr noundef null, ptr noundef null, ptr noundef %42, ptr noundef null)
  store ptr %43, ptr %9, align 8, !tbaa !128
  %44 = call i32 @test_ptr(ptr noundef @.str.14, i32 noundef 9113, ptr noundef @.str.944, ptr noundef %43)
  %45 = icmp ne i32 %44, 0
  br i1 %45, label %47, label %46

46:                                               ; preds = %40, %35, %30, %25
  br label %56

47:                                               ; preds = %40
  %48 = load ptr, ptr %8, align 8, !tbaa !31
  %49 = load ptr, ptr %6, align 8, !tbaa !248
  store ptr %48, ptr %49, align 8, !tbaa !31
  %50 = load ptr, ptr %9, align 8, !tbaa !128
  %51 = load ptr, ptr %7, align 8, !tbaa !250
  store ptr %50, ptr %51, align 8, !tbaa !128
  %52 = load ptr, ptr %10, align 8, !tbaa !29
  %53 = call i32 @BIO_free(ptr noundef %52)
  %54 = load ptr, ptr %11, align 8, !tbaa !29
  %55 = call i32 @BIO_free(ptr noundef %54)
  store i32 1, ptr %4, align 4
  store i32 1, ptr %12, align 4
  br label %62

56:                                               ; preds = %46
  %57 = load ptr, ptr %8, align 8, !tbaa !31
  call void @X509_free(ptr noundef %57)
  %58 = load ptr, ptr %10, align 8, !tbaa !29
  %59 = call i32 @BIO_free(ptr noundef %58)
  %60 = load ptr, ptr %11, align 8, !tbaa !29
  %61 = call i32 @BIO_free(ptr noundef %60)
  store i32 0, ptr %4, align 4
  store i32 1, ptr %12, align 4
  br label %62

62:                                               ; preds = %56, %47, %24, %17
  call void @llvm.lifetime.end.p0(i64 8, ptr %11) #9
  call void @llvm.lifetime.end.p0(i64 8, ptr %10) #9
  call void @llvm.lifetime.end.p0(i64 8, ptr %9) #9
  call void @llvm.lifetime.end.p0(i64 8, ptr %8) #9
  %63 = load i32, ptr %4, align 4
  ret i32 %63
}