; Function Attrs: nounwind uwtable
define internal range(i32 0, 2) i32 @client_cert_cb(ptr noundef %0, ptr noundef writeonly captures(none) %1, ptr noundef writeonly captures(none) %2) #1 {
  %4 = alloca ptr, align 8
  call void @llvm.lifetime.start.p0(i64 8, ptr nonnull %4) #24
  %5 = tail call ptr @SSL_get0_peer_certificate(ptr noundef %0) #24
  %6 = tail call i32 @test_ptr(ptr noundef nonnull @.str.14, i32 noundef 9101, ptr noundef nonnull @.str.939, ptr noundef %5) #24
  %.not = icmp eq i32 %6, 0
  br i1 %.not, label %32, label %7

7:                                                ; preds = %3
  %8 = load ptr, ptr @cert, align 8, !tbaa !11
  %9 = tail call ptr @BIO_new_file(ptr noundef %8, ptr noundef nonnull @.str.199) #24
  %10 = tail call i32 @test_ptr(ptr noundef nonnull @.str.14, i32 noundef 9105, ptr noundef nonnull @.str.940, ptr noundef %9) #24
  %.not12 = icmp eq i32 %10, 0
  br i1 %.not12, label %32, label %11

11:                                               ; preds = %7
  %12 = load ptr, ptr @libctx, align 8, !tbaa !4
  %13 = tail call ptr @X509_new_ex(ptr noundef %12, ptr noundef null) #24
  store ptr %13, ptr %4, align 8, !tbaa !23
  %14 = tail call i32 @test_ptr(ptr noundef nonnull @.str.14, i32 noundef 9108, ptr noundef nonnull @.str.941, ptr noundef %13) #24
  %.not13 = icmp eq i32 %14, 0
  br i1 %.not13, label %28, label %15

15:                                               ; preds = %11
  %16 = call ptr @PEM_read_bio_X509(ptr noundef %9, ptr noundef nonnull %4, ptr noundef null, ptr noundef null) #24
  %17 = call i32 @test_ptr(ptr noundef nonnull @.str.14, i32 noundef 9109, ptr noundef nonnull @.str.942, ptr noundef %16) #24
  %.not14 = icmp eq i32 %17, 0
  br i1 %.not14, label %28, label %18

18:                                               ; preds = %15
  %19 = load ptr, ptr @privkey, align 8, !tbaa !11
  %20 = call ptr @BIO_new_file(ptr noundef %19, ptr noundef nonnull @.str.199) #24
  %21 = call i32 @test_ptr(ptr noundef nonnull @.str.14, i32 noundef 9110, ptr noundef nonnull @.str.943, ptr noundef %20) #24
  %.not15 = icmp eq i32 %21, 0
  br i1 %.not15, label %28, label %22

22:                                               ; preds = %18
  %23 = load ptr, ptr @libctx, align 8, !tbaa !4
  %24 = call ptr @PEM_read_bio_PrivateKey_ex(ptr noundef %20, ptr noundef null, ptr noundef null, ptr noundef null, ptr noundef %23, ptr noundef null) #24
  %25 = call i32 @test_ptr(ptr noundef nonnull @.str.14, i32 noundef 9113, ptr noundef nonnull @.str.944, ptr noundef %24) #24
  %.not16 = icmp eq i32 %25, 0
  br i1 %.not16, label %28, label %26

26:                                               ; preds = %22
  %27 = load ptr, ptr %4, align 8, !tbaa !23
  store ptr %27, ptr %1, align 8, !tbaa !23
  store ptr %24, ptr %2, align 8, !tbaa !129
  br label %.sink.split

28:                                               ; preds = %11, %15, %18, %22
  %.0 = phi ptr [ %20, %22 ], [ %20, %18 ], [ null, %15 ], [ null, %11 ]
  %29 = load ptr, ptr %4, align 8, !tbaa !23
  call void @X509_free(ptr noundef %29) #24
  br label %.sink.split

.sink.split:                                      ; preds = %26, %28
  %.0.sink = phi ptr [ %.0, %28 ], [ %20, %26 ]
  %.011.ph = phi i32 [ 0, %28 ], [ 1, %26 ]
  %30 = call i32 @BIO_free(ptr noundef %9) #24
  %31 = call i32 @BIO_free(ptr noundef %.0.sink) #24
  br label %32

32:                                               ; preds = %.sink.split, %7, %3
  %.011 = phi i32 [ 0, %3 ], [ 0, %7 ], [ %.011.ph, %.sink.split ]
  call void @llvm.lifetime.end.p0(i64 8, ptr nonnull %4) #24
  ret i32 %.011
}